target datalayout = "e-m:e-p270:32:32-p271:32:32-p272:64:64-i64:64-i128:128-f80:128-n8:16:32:64-S128"
target triple = "x86_64-pc-linux-gnu"

; Function Attrs: nounwind uwtable
define internal void @dequant_subband_int32_t_c(ptr noundef %0, ptr noundef %1, i64 noundef %2, i32 noundef %3, i32 noundef %4, i32 noundef %5, i32 noundef %6) #1 {
  %8 = alloca ptr, align 8
  %9 = alloca ptr, align 8
  %10 = alloca i64, align 8
  %11 = alloca i32, align 4
  %12 = alloca i32, align 4
  %13 = alloca i32, align 4
  %14 = alloca i32, align 4
  %15 = alloca i32, align 4
  %16 = alloca i32, align 4
  %17 = alloca i32, align 4
  %18 = alloca ptr, align 8
  %19 = alloca ptr, align 8
  store ptr %0, ptr %8, align 8, !tbaa !11
  store ptr %1, ptr %9, align 8, !tbaa !11
  store i64 %2, ptr %10, align 8, !tbaa !53
  store i32 %3, ptr %11, align 4, !tbaa !13
  store i32 %4, ptr %12, align 4, !tbaa !13
  store i32 %5, ptr %13, align 4, !tbaa !13
  store i32 %6, ptr %14, align 4, !tbaa !13
  call void @llvm.lifetime.start.p0(i64 4, ptr %15) #5
  call void @llvm.lifetime.start.p0(i64 4, ptr %16) #5
  store i32 0, ptr %16, align 4, !tbaa !13
  br label %20

20:                                               ; preds = %73, %7
  %21 = load i32, ptr %16, align 4, !tbaa !13
  %22 = load i32, ptr %13, align 4, !tbaa !13
  %23 = icmp slt i32 %21, %22
  br i1 %23, label %24, label %76

24:                                               ; preds = %20
  call void @llvm.lifetime.start.p0(i64 4, ptr %17) #5
  call void @llvm.lifetime.start.p0(i64 8, ptr %18) #5
  %25 = load ptr, ptr %8, align 8, !tbaa !11
  store ptr %25, ptr %18, align 8, !tbaa !29
  call void @llvm.lifetime.start.p0(i64 8, ptr %19) #5
  %26 = load ptr, ptr %9, align 8, !tbaa !11
  store ptr %26, ptr %19, align 8, !tbaa !29
  store i32 0, ptr %15, align 4, !tbaa !13
  br label %27

27:                                               ; preds = %61, %24
  %28 = load i32, ptr %15, align 4, !tbaa !13
  %29 = load i32, ptr %14, align 4, !tbaa !13
  %30 = icmp slt i32 %28, %29
  br i1 %30, label %31, label %64

31:                                               ; preds = %27
  %32 = load ptr, ptr %18, align 8, !tbaa !29
  %33 = getelementptr inbounds nuw i32, ptr %32, i32 1
  store ptr %33, ptr %18, align 8, !tbaa !29
  %34 = load i32, ptr %32, align 4, !tbaa !13
  store i32 %34, ptr %17, align 4, !tbaa !13
  %35 = load i32, ptr %17, align 4, !tbaa !13
  %36 = icmp slt i32 %35, 0
  br i1 %36, label %37, label %46

37:                                               ; preds = %31
  %38 = load i32, ptr %17, align 4, !tbaa !13
  %39 = sub i32 0, %38
  %40 = load i32, ptr %11, align 4, !tbaa !13
  %41 = mul i32 %39, %40
  %42 = load i32, ptr %12, align 4, !tbaa !13
  %43 = add i32 %41, %42
  %44 = lshr i32 %43, 2
  %45 = sub i32 0, %44
  store i32 %45, ptr %17, align 4, !tbaa !13
  br label %57

46:                                               ; preds = %31
  %47 = load i32, ptr %17, align 4, !tbaa !13
  %48 = icmp sgt i32 %47, 0
  br i1 %48, label %49, label %56

49:                                               ; preds = %46
  %50 = load i32, ptr %17, align 4, !tbaa !13
  %51 = load i32, ptr %11, align 4, !tbaa !13
  %52 = mul i32 %50, %51
  %53 = load i32, ptr %12, align 4, !tbaa !13
  %54 = add i32 %52, %53
  %55 = lshr i32 %54, 2
  store i32 %55, ptr %17, align 4, !tbaa !13
  br label %56

56:                                               ; preds = %49, %46
  br label %57

57:                                               ; preds = %56, %37
  %58 = load i32, ptr %17, align 4, !tbaa !13
  %59 = load ptr, ptr %19, align 8, !tbaa !29
  %60 = getelementptr inbounds nuw i32, ptr %59, i32 1
  store ptr %60, ptr %19, align 8, !tbaa !29
  store i32 %58, ptr %59, align 4, !tbaa !13
  br label %61

61:                                               ; preds = %57
  %62 = load i32, ptr %15, align 4, !tbaa !13
  %63 = add nsw i32 %62, 1
  store i32 %63, ptr %15, align 4, !tbaa !13
  br label %27, !llvm.loop !57

64:                                               ; preds = %27
  %65 = load i32, ptr %14, align 4, !tbaa !13
  %66 = shl i32 %65, 2
  %67 = load ptr, ptr %8, align 8, !tbaa !11
  %68 = sext i32 %66 to i64
  %69 = getelementptr inbounds i8, ptr %67, i64 %68
  store ptr %69, ptr %8, align 8, !tbaa !11
  %70 = load i64, ptr %10, align 8, !tbaa !53
  %71 = load ptr, ptr %9, align 8, !tbaa !11
  %72 = getelementptr inbounds i8, ptr %71, i64 %70
  store ptr %72, ptr %9, align 8, !tbaa !11
  call void @llvm.lifetime.end.p0(i64 8, ptr %19) #5
  call void @llvm.lifetime.end.p0(i64 8, ptr %18) #5
  call void @llvm.lifetime.end.p0(i64 4, ptr %17) #5
  br label %73

73:                                               ; preds = %64
  %74 = load i32, ptr %16, align 4, !tbaa !13
  %75 = add nsw i32 %74, 1
  store i32 %75, ptr %16, align 4, !tbaa !13
  br label %20, !llvm.loop !58

76:                                               ; preds = %20
  call void @llvm.lifetime.end.p0(i64 4, ptr %16) #5
  call void @llvm.lifetime.end.p0(i64 4, ptr %15) #5
  ret void
}