; Function Attrs: nofree norecurse nosync nounwind memory(argmem: readwrite) uwtable
define internal void @dequant_subband_int32_t_c(ptr noundef readonly captures(none) %0, ptr noundef writeonly captures(none) %1, i64 noundef %2, i32 noundef %3, i32 noundef %4, i32 noundef %5, i32 noundef %6) #1 {
  %8 = icmp sgt i32 %5, 0
  br i1 %8, label %.preheader.lr.ph, label %._crit_edge36

.preheader.lr.ph:                                 ; preds = %7
  %9 = icmp sgt i32 %6, 0
  %10 = shl i32 %6, 2
  %11 = sext i32 %10 to i64
  br i1 %9, label %.preheader.us, label %._crit_edge36

.preheader.us:                                    ; preds = %.preheader.lr.ph, %._crit_edge.us
  %.02435.us = phi i32 [ %31, %._crit_edge.us ], [ 0, %.preheader.lr.ph ]
  %.02634.us = phi ptr [ %29, %._crit_edge.us ], [ %0, %.preheader.lr.ph ]
  %.02733.us = phi ptr [ %30, %._crit_edge.us ], [ %1, %.preheader.lr.ph ]
  br label %12

12:                                               ; preds = %.preheader.us, %26
  %.032.us = phi ptr [ %.02733.us, %.preheader.us ], [ %27, %26 ]
  %.02231.us = phi ptr [ %.02634.us, %.preheader.us ], [ %13, %26 ]
  %.02530.us = phi i32 [ 0, %.preheader.us ], [ %28, %26 ]
  %13 = getelementptr inbounds nuw i8, ptr %.02231.us, i64 4
  %14 = load i32, ptr %.02231.us, align 4, !tbaa !23
  %15 = icmp slt i32 %14, 0
  br i1 %15, label %21, label %16

16:                                               ; preds = %12
  %.not.us = icmp eq i32 %14, 0
  br i1 %.not.us, label %26, label %17

17:                                               ; preds = %16
  %18 = mul i32 %14, %3
  %19 = add i32 %18, %4
  %20 = lshr i32 %19, 2
  br label %26

21:                                               ; preds = %12
  %22 = mul i32 %14, %3
  %23 = sub i32 %4, %22
  %24 = lshr i32 %23, 2
  %25 = sub nsw i32 0, %24
  br label %26

26:                                               ; preds = %21, %17, %16
  %.023.us = phi i32 [ %25, %21 ], [ %20, %17 ], [ 0, %16 ]
  %27 = getelementptr inbounds nuw i8, ptr %.032.us, i64 4
  store i32 %.023.us, ptr %.032.us, align 4, !tbaa !23
  %28 = add nuw nsw i32 %.02530.us, 1
  %exitcond.not = icmp eq i32 %28, %6
  br i1 %exitcond.not, label %._crit_edge.us, label %12, !llvm.loop !49

._crit_edge.us:                                   ; preds = %26
  %29 = getelementptr inbounds i8, ptr %.02634.us, i64 %11
  %30 = getelementptr inbounds i8, ptr %.02733.us, i64 %2
  %31 = add nuw nsw i32 %.02435.us, 1
  %exitcond38.not = icmp eq i32 %31, %5
  br i1 %exitcond38.not, label %._crit_edge36, label %.preheader.us, !llvm.loop !50

._crit_edge36:                                    ; preds = %._crit_edge.us, %.preheader.lr.ph, %7
  ret void
}